target datalayout = "e-m:e-p270:32:32-p271:32:32-p272:64:64-i64:64-i128:128-f80:128-n8:16:32:64-S128"
target triple = "x86_64-pc-linux-gnu"

%class.PreferenceEditorFrame = type { %class.AccordionFrame, ptr, ptr, ptr, i32, %class.QString, ptr }
%class.AccordionFrame = type { %class.QFrame, i32, ptr }
%class.QFrame = type { %class.QWidget }
%class.QWidget = type { %class.QObject, %class.QPaintDevice.base, ptr }
%class.QObject = type { ptr, %class.QScopedPointer }
%class.QScopedPointer = type { ptr }
%class.QPaintDevice.base = type <{ ptr, i16 }>
%class.QString = type { %struct.QArrayDataPointer }
%struct.QArrayDataPointer = type { ptr, ptr, i64 }

; Function Attrs: mustprogress uwtable
define void @_ZN21PreferenceEditorFrame21on_buttonBox_rejectedEv(ptr noundef nonnull align 8 dereferenceable(120) %0) #0 align 2 {
  %2 = alloca ptr, align 8
  store ptr %0, ptr %2, align 8
  %3 = load ptr, ptr %2, align 8
  %4 = getelementptr inbounds %class.PreferenceEditorFrame, ptr %3, i32 0, i32 3
  store ptr null, ptr %4, align 8
  %5 = getelementptr inbounds %class.PreferenceEditorFrame, ptr %3, i32 0, i32 2
  store ptr null, ptr %5, align 8
  %6 = getelementptr inbounds %class.PreferenceEditorFrame, ptr %3, i32 0, i32 6
  %7 = load ptr, ptr %6, align 8
  call void @wmem_free(ptr noundef null, ptr noundef %7)
  %8 = getelementptr inbounds %class.PreferenceEditorFrame, ptr %3, i32 0, i32 6
  store ptr null, ptr %8, align 8
  call void @_ZN14AccordionFrame12animatedHideEv(ptr noundef nonnull align 8 dereferenceable(56) %3)
  ret void
}