; Function Attrs: mustprogress uwtable
define void @_ZN21PreferenceEditorFrame21on_buttonBox_rejectedEv(ptr noundef nonnull align 8 dereferenceable(120) %0) local_unnamed_addr #0 align 2 {
  %2 = getelementptr inbounds i8, ptr %0, i64 64
  %3 = getelementptr inbounds i8, ptr %0, i64 112
  tail call void @llvm.memset.p0.i64(ptr noundef nonnull align 8 dereferenceable(16) %2, i8 0, i64 16, i1 false)
  %4 = load ptr, ptr %3, align 8
  tail call void @wmem_free(ptr noundef null, ptr noundef %4)
  store ptr null, ptr %3, align 8
  tail call void @_ZN14AccordionFrame12animatedHideEv(ptr noundef nonnull align 8 dereferenceable(56) %0)
  ret void
}